target datalayout = "e-m:e-p270:32:32-p271:32:32-p272:64:64-i64:64-i128:128-f80:128-n8:16:32:64-S128"
target triple = "x86_64-pc-linux-gnu"

%struct.HTAB = type { ptr, ptr, ptr, ptr, ptr, ptr, ptr, ptr, i8, i8, i8, i64, i64, i32 }
%struct.HASHHDR = type { [32 x %struct.FreeListData], i64, i64, i32, i32, i32, i64, i64, i64, i64, i64, i32, i32 }
%struct.FreeListData = type { i8, i64, ptr }
%struct.HASHELEMENT = type { ptr, i32 }

@.str.2 = private unnamed_addr constant [11 x i8] c"dynahash.c\00", align 1
@.str.8 = private unnamed_addr constant [39 x i8] c"cannot update in frozen hashtable \22%s\22\00", align 1
@__func__.hash_update_hash_key = private unnamed_addr constant [21 x i8] c"hash_update_hash_key\00", align 1
@.str.9 = private unnamed_addr constant [55 x i8] c"hash_update_hash_key argument is not in hashtable \22%s\22\00", align 1

; Function Attrs: inlinehint nounwind uwtable
define internal i32 @calc_bucket(ptr noundef %0, i32 noundef %1) #7 {
  %3 = alloca ptr, align 8
  %4 = alloca i32, align 4
  %5 = alloca i32, align 4
  store ptr %0, ptr %3, align 8
  store i32 %1, ptr %4, align 4
  call void @llvm.lifetime.start.p0(i64 4, ptr %5) #11
  %6 = load i32, ptr %4, align 4
  %7 = load ptr, ptr %3, align 8
  %8 = getelementptr inbounds nuw %struct.HASHHDR, ptr %7, i32 0, i32 4
  %9 = load i32, ptr %8, align 4
  %10 = and i32 %6, %9
  store i32 %10, ptr %5, align 4
  %11 = load i32, ptr %5, align 4
  %12 = load ptr, ptr %3, align 8
  %13 = getelementptr inbounds nuw %struct.HASHHDR, ptr %12, i32 0, i32 3
  %14 = load i32, ptr %13, align 8
  %15 = icmp ugt i32 %11, %14
  br i1 %15, label %16, label %22

16:                                               ; preds = %2
  %17 = load i32, ptr %5, align 4
  %18 = load ptr, ptr %3, align 8
  %19 = getelementptr inbounds nuw %struct.HASHHDR, ptr %18, i32 0, i32 5
  %20 = load i32, ptr %19, align 8
  %21 = and i32 %17, %20
  store i32 %21, ptr %5, align 4
  br label %22

22:                                               ; preds = %16, %2
  %23 = load i32, ptr %5, align 4
  call void @llvm.lifetime.end.p0(i64 4, ptr %5) #11
  ret i32 %23
}

; Function Attrs: inlinehint nounwind uwtable
define internal i32 @hash_initial_lookup(ptr noundef %0, i32 noundef %1, ptr noundef %2) #7 {
  %4 = alloca ptr, align 8
  %5 = alloca i32, align 4
  %6 = alloca ptr, align 8
  %7 = alloca ptr, align 8
  %8 = alloca ptr, align 8
  %9 = alloca i64, align 8
  %10 = alloca i64, align 8
  %11 = alloca i32, align 4
  store ptr %0, ptr %4, align 8
  store i32 %1, ptr %5, align 4
  store ptr %2, ptr %6, align 8
  call void @llvm.lifetime.start.p0(i64 8, ptr %7) #11
  %12 = load ptr, ptr %4, align 8
  %13 = getelementptr inbounds nuw %struct.HTAB, ptr %12, i32 0, i32 0
  %14 = load ptr, ptr %13, align 8
  store ptr %14, ptr %7, align 8
  call void @llvm.lifetime.start.p0(i64 8, ptr %8) #11
  call void @llvm.lifetime.start.p0(i64 8, ptr %9) #11
  call void @llvm.lifetime.start.p0(i64 8, ptr %10) #11
  call void @llvm.lifetime.start.p0(i64 4, ptr %11) #11
  %15 = load ptr, ptr %7, align 8
  %16 = load i32, ptr %5, align 4
  %17 = call i32 @calc_bucket(ptr noundef %15, i32 noundef %16)
  store i32 %17, ptr %11, align 4
  %18 = load i32, ptr %11, align 4
  %19 = load ptr, ptr %4, align 8
  %20 = getelementptr inbounds nuw %struct.HTAB, ptr %19, i32 0, i32 13
  %21 = load i32, ptr %20, align 8
  %22 = lshr i32 %18, %21
  %23 = zext i32 %22 to i64
  store i64 %23, ptr %9, align 8
  %24 = load i32, ptr %11, align 4
  %25 = zext i32 %24 to i64
  %26 = load ptr, ptr %4, align 8
  %27 = getelementptr inbounds nuw %struct.HTAB, ptr %26, i32 0, i32 12
  %28 = load i64, ptr %27, align 8
  %29 = sub i64 %28, 1
  %30 = and i64 %25, %29
  store i64 %30, ptr %10, align 8
  %31 = load ptr, ptr %4, align 8
  %32 = getelementptr inbounds nuw %struct.HTAB, ptr %31, i32 0, i32 1
  %33 = load ptr, ptr %32, align 8
  %34 = load i64, ptr %9, align 8
  %35 = getelementptr inbounds ptr, ptr %33, i64 %34
  %36 = load ptr, ptr %35, align 8
  store ptr %36, ptr %8, align 8
  %37 = load ptr, ptr %8, align 8
  %38 = icmp eq ptr %37, null
  br i1 %38, label %39, label %41

39:                                               ; preds = %3
  %40 = load ptr, ptr %4, align 8
  call void @hash_corrupted(ptr noundef %40) #14
  unreachable

41:                                               ; preds = %3
  %42 = load ptr, ptr %8, align 8
  %43 = load i64, ptr %10, align 8
  %44 = getelementptr inbounds ptr, ptr %42, i64 %43
  %45 = load ptr, ptr %6, align 8
  store ptr %44, ptr %45, align 8
  %46 = load i32, ptr %11, align 4
  call void @llvm.lifetime.end.p0(i64 4, ptr %11) #11
  call void @llvm.lifetime.end.p0(i64 8, ptr %10) #11
  call void @llvm.lifetime.end.p0(i64 8, ptr %9) #11
  call void @llvm.lifetime.end.p0(i64 8, ptr %8) #11
  call void @llvm.lifetime.end.p0(i64 8, ptr %7) #11
  ret i32 %46
}

; Function Attrs: nounwind uwtable
define dso_local zeroext i1 @hash_update_hash_key(ptr noundef %0, ptr noundef %1, ptr noundef %2) #0 {
  %4 = alloca i1, align 1
  %5 = alloca ptr, align 8
  %6 = alloca ptr, align 8
  %7 = alloca ptr, align 8
  %8 = alloca ptr, align 8
  %9 = alloca i32, align 4
  %10 = alloca i64, align 8
  %11 = alloca i32, align 4
  %12 = alloca i32, align 4
  %13 = alloca ptr, align 8
  %14 = alloca ptr, align 8
  %15 = alloca ptr, align 8
  %16 = alloca ptr, align 8
  %17 = alloca i32, align 4
  store ptr %0, ptr %5, align 8
  store ptr %1, ptr %6, align 8
  store ptr %2, ptr %7, align 8
  call void @llvm.lifetime.start.p0(i64 8, ptr %8) #11
  %18 = load ptr, ptr %6, align 8
  %19 = getelementptr inbounds i8, ptr %18, i64 -16
  store ptr %19, ptr %8, align 8
  call void @llvm.lifetime.start.p0(i64 4, ptr %9) #11
  call void @llvm.lifetime.start.p0(i64 8, ptr %10) #11
  call void @llvm.lifetime.start.p0(i64 4, ptr %11) #11
  call void @llvm.lifetime.start.p0(i64 4, ptr %12) #11
  call void @llvm.lifetime.start.p0(i64 8, ptr %13) #11
  call void @llvm.lifetime.start.p0(i64 8, ptr %14) #11
  call void @llvm.lifetime.start.p0(i64 8, ptr %15) #11
  call void @llvm.lifetime.start.p0(i64 8, ptr %16) #11
  %20 = load ptr, ptr %5, align 8
  %21 = getelementptr inbounds nuw %struct.HTAB, ptr %20, i32 0, i32 10
  %22 = load i8, ptr %21, align 2, !range !12, !noundef !13
  %23 = trunc i8 %22 to i1
  br i1 %23, label %24, label %38

24:                                               ; preds = %3
  br label %25

25:                                               ; preds = %24
  br i1 true, label %26, label %28

26:                                               ; preds = %25
  %27 = call zeroext i1 @errstart_cold(i32 noundef 21, ptr noundef null) #13
  br i1 %27, label %30, label %35

28:                                               ; preds = %25
  %29 = call zeroext i1 @errstart(i32 noundef 21, ptr noundef null)
  br i1 %29, label %30, label %35

30:                                               ; preds = %28, %26
  %31 = load ptr, ptr %5, align 8
  %32 = getelementptr inbounds nuw %struct.HTAB, ptr %31, i32 0, i32 7
  %33 = load ptr, ptr %32, align 8
  %34 = call i32 (ptr, ...) @errmsg_internal(ptr noundef @.str.8, ptr noundef %33)
  call void @errfinish(ptr noundef @.str.2, i32 noundef 1167, ptr noundef @__func__.hash_update_hash_key)
  br label %35

35:                                               ; preds = %30, %28, %26
  unreachable

36:                                               ; No predecessors!
  br label %37

37:                                               ; preds = %36
  br label %38

38:                                               ; preds = %37, %3
  %39 = load ptr, ptr %5, align 8
  %40 = load ptr, ptr %8, align 8
  %41 = getelementptr inbounds nuw %struct.HASHELEMENT, ptr %40, i32 0, i32 1
  %42 = load i32, ptr %41, align 8
  %43 = call i32 @hash_initial_lookup(ptr noundef %39, i32 noundef %42, ptr noundef %14)
  store i32 %43, ptr %11, align 4
  %44 = load ptr, ptr %14, align 8
  %45 = load ptr, ptr %44, align 8
  store ptr %45, ptr %13, align 8
  br label %46

46:                                               ; preds = %54, %38
  %47 = load ptr, ptr %13, align 8
  %48 = icmp ne ptr %47, null
  br i1 %48, label %49, label %59

49:                                               ; preds = %46
  %50 = load ptr, ptr %13, align 8
  %51 = load ptr, ptr %8, align 8
  %52 = icmp eq ptr %50, %51
  br i1 %52, label %53, label %54

53:                                               ; preds = %49
  br label %59

54:                                               ; preds = %49
  %55 = load ptr, ptr %13, align 8
  %56 = getelementptr inbounds nuw %struct.HASHELEMENT, ptr %55, i32 0, i32 0
  store ptr %56, ptr %14, align 8
  %57 = load ptr, ptr %14, align 8
  %58 = load ptr, ptr %57, align 8
  store ptr %58, ptr %13, align 8
  br label %46, !llvm.loop !29

59:                                               ; preds = %53, %46
  %60 = load ptr, ptr %13, align 8
  %61 = icmp eq ptr %60, null
  br i1 %61, label %62, label %76

62:                                               ; preds = %59
  br label %63

63:                                               ; preds = %62
  br i1 true, label %64, label %66

64:                                               ; preds = %63
  %65 = call zeroext i1 @errstart_cold(i32 noundef 21, ptr noundef null) #13
  br i1 %65, label %68, label %73

66:                                               ; preds = %63
  %67 = call zeroext i1 @errstart(i32 noundef 21, ptr noundef null)
  br i1 %67, label %68, label %73

68:                                               ; preds = %66, %64
  %69 = load ptr, ptr %5, align 8
  %70 = getelementptr inbounds nuw %struct.HTAB, ptr %69, i32 0, i32 7
  %71 = load ptr, ptr %70, align 8
  %72 = call i32 (ptr, ...) @errmsg_internal(ptr noundef @.str.9, ptr noundef %71)
  call void @errfinish(ptr noundef @.str.2, i32 noundef 1188, ptr noundef @__func__.hash_update_hash_key)
  br label %73

73:                                               ; preds = %68, %66, %64
  unreachable

74:                                               ; No predecessors!
  br label %75

75:                                               ; preds = %74
  br label %76

76:                                               ; preds = %75, %59
  %77 = load ptr, ptr %14, align 8
  store ptr %77, ptr %15, align 8
  %78 = load ptr, ptr %5, align 8
  %79 = getelementptr inbounds nuw %struct.HTAB, ptr %78, i32 0, i32 2
  %80 = load ptr, ptr %79, align 8
  %81 = load ptr, ptr %7, align 8
  %82 = load ptr, ptr %5, align 8
  %83 = getelementptr inbounds nuw %struct.HTAB, ptr %82, i32 0, i32 11
  %84 = load i64, ptr %83, align 8
  %85 = call i32 %80(ptr noundef %81, i64 noundef %84)
  store i32 %85, ptr %9, align 4
  %86 = load ptr, ptr %5, align 8
  %87 = load i32, ptr %9, align 4
  %88 = call i32 @hash_initial_lookup(ptr noundef %86, i32 noundef %87, ptr noundef %14)
  store i32 %88, ptr %12, align 4
  %89 = load ptr, ptr %14, align 8
  %90 = load ptr, ptr %89, align 8
  store ptr %90, ptr %13, align 8
  %91 = load ptr, ptr %5, align 8
  %92 = getelementptr inbounds nuw %struct.HTAB, ptr %91, i32 0, i32 3
  %93 = load ptr, ptr %92, align 8
  store ptr %93, ptr %16, align 8
  %94 = load ptr, ptr %5, align 8
  %95 = getelementptr inbounds nuw %struct.HTAB, ptr %94, i32 0, i32 11
  %96 = load i64, ptr %95, align 8
  store i64 %96, ptr %10, align 8
  br label %97

97:                                               ; preds = %115, %76
  %98 = load ptr, ptr %13, align 8
  %99 = icmp ne ptr %98, null
  br i1 %99, label %100, label %120

100:                                              ; preds = %97
  %101 = load ptr, ptr %13, align 8
  %102 = getelementptr inbounds nuw %struct.HASHELEMENT, ptr %101, i32 0, i32 1
  %103 = load i32, ptr %102, align 8
  %104 = load i32, ptr %9, align 4
  %105 = icmp eq i32 %103, %104
  br i1 %105, label %106, label %115

106:                                              ; preds = %100
  %107 = load ptr, ptr %16, align 8
  %108 = load ptr, ptr %13, align 8
  %109 = getelementptr inbounds nuw i8, ptr %108, i64 16
  %110 = load ptr, ptr %7, align 8
  %111 = load i64, ptr %10, align 8
  %112 = call i32 %107(ptr noundef %109, ptr noundef %110, i64 noundef %111)
  %113 = icmp eq i32 %112, 0
  br i1 %113, label %114, label %115

114:                                              ; preds = %106
  br label %120

115:                                              ; preds = %106, %100
  %116 = load ptr, ptr %13, align 8
  %117 = getelementptr inbounds nuw %struct.HASHELEMENT, ptr %116, i32 0, i32 0
  store ptr %117, ptr %14, align 8
  %118 = load ptr, ptr %14, align 8
  %119 = load ptr, ptr %118, align 8
  store ptr %119, ptr %13, align 8
  br label %97, !llvm.loop !30

120:                                              ; preds = %114, %97
  %121 = load ptr, ptr %13, align 8
  %122 = icmp ne ptr %121, null
  br i1 %122, label %123, label %124

123:                                              ; preds = %120
  store i1 false, ptr %4, align 1
  store i32 1, ptr %17, align 4
  br label %150

124:                                              ; preds = %120
  %125 = load ptr, ptr %8, align 8
  store ptr %125, ptr %13, align 8
  %126 = load i32, ptr %11, align 4
  %127 = load i32, ptr %12, align 4
  %128 = icmp ne i32 %126, %127
  br i1 %128, label %129, label %138

129:                                              ; preds = %124
  %130 = load ptr, ptr %13, align 8
  %131 = getelementptr inbounds nuw %struct.HASHELEMENT, ptr %130, i32 0, i32 0
  %132 = load ptr, ptr %131, align 8
  %133 = load ptr, ptr %15, align 8
  store ptr %132, ptr %133, align 8
  %134 = load ptr, ptr %13, align 8
  %135 = load ptr, ptr %14, align 8
  store ptr %134, ptr %135, align 8
  %136 = load ptr, ptr %13, align 8
  %137 = getelementptr inbounds nuw %struct.HASHELEMENT, ptr %136, i32 0, i32 0
  store ptr null, ptr %137, align 8
  br label %138

138:                                              ; preds = %129, %124
  %139 = load i32, ptr %9, align 4
  %140 = load ptr, ptr %13, align 8
  %141 = getelementptr inbounds nuw %struct.HASHELEMENT, ptr %140, i32 0, i32 1
  store i32 %139, ptr %141, align 8
  %142 = load ptr, ptr %5, align 8
  %143 = getelementptr inbounds nuw %struct.HTAB, ptr %142, i32 0, i32 4
  %144 = load ptr, ptr %143, align 8
  %145 = load ptr, ptr %13, align 8
  %146 = getelementptr inbounds nuw i8, ptr %145, i64 16
  %147 = load ptr, ptr %7, align 8
  %148 = load i64, ptr %10, align 8
  %149 = call ptr %144(ptr noundef %146, ptr noundef %147, i64 noundef %148)
  store i1 true, ptr %4, align 1
  store i32 1, ptr %17, align 4
  br label %150

150:                                              ; preds = %138, %123
  call void @llvm.lifetime.end.p0(i64 8, ptr %16) #11
  call void @llvm.lifetime.end.p0(i64 8, ptr %15) #11
  call void @llvm.lifetime.end.p0(i64 8, ptr %14) #11
  call void @llvm.lifetime.end.p0(i64 8, ptr %13) #11
  call void @llvm.lifetime.end.p0(i64 4, ptr %12) #11
  call void @llvm.lifetime.end.p0(i64 4, ptr %11) #11
  call void @llvm.lifetime.end.p0(i64 8, ptr %10) #11
  call void @llvm.lifetime.end.p0(i64 4, ptr %9) #11
  call void @llvm.lifetime.end.p0(i64 8, ptr %8) #11
  %151 = load i1, ptr %4, align 1
  ret i1 %151
}