; Function Attrs: nounwind uwtable
define dso_local noundef zeroext i1 @hash_update_hash_key(ptr noundef readonly captures(none) %0, ptr noundef %1, ptr noundef %2) local_unnamed_addr #0 {
  %4 = getelementptr inbounds i8, ptr %1, i64 -16
  %5 = getelementptr inbounds nuw i8, ptr %0, i64 66
  %6 = load i8, ptr %5, align 2, !range !10, !noundef !11
  %7 = trunc nuw i8 %6 to i1
  br i1 %7, label %8, label %13

8:                                                ; preds = %3
  %9 = tail call zeroext i1 @errstart_cold(i32 noundef 21, ptr noundef null) #19
  tail call void @llvm.assume(i1 %9)
  %10 = getelementptr inbounds nuw i8, ptr %0, i64 56
  %11 = load ptr, ptr %10, align 8
  %12 = tail call i32 (ptr, ...) @errmsg_internal(ptr noundef nonnull @.str.8, ptr noundef %11) #17
  tail call void @errfinish(ptr noundef nonnull @.str.2, i32 noundef 1167, ptr noundef nonnull @__func__.hash_update_hash_key) #17
  unreachable

13:                                               ; preds = %3
  %14 = getelementptr inbounds i8, ptr %1, i64 -8
  %15 = load i32, ptr %14, align 8
  %16 = load ptr, ptr %0, align 8
  %17 = getelementptr inbounds nuw i8, ptr %16, i64 788
  %18 = load i32, ptr %17, align 4
  %19 = and i32 %18, %15
  %20 = getelementptr inbounds nuw i8, ptr %16, i64 784
  %21 = load i32, ptr %20, align 8
  %22 = icmp ugt i32 %19, %21
  br i1 %22, label %23, label %calc_bucket.exit.i

23:                                               ; preds = %13
  %24 = getelementptr inbounds nuw i8, ptr %16, i64 792
  %25 = load i32, ptr %24, align 8
  %26 = and i32 %25, %19
  br label %calc_bucket.exit.i

calc_bucket.exit.i:                               ; preds = %23, %13
  %.0.i.i = phi i32 [ %26, %23 ], [ %19, %13 ]
  %27 = getelementptr inbounds nuw i8, ptr %0, i64 88
  %28 = load i32, ptr %27, align 8
  %29 = lshr i32 %.0.i.i, %28
  %30 = zext i32 %29 to i64
  %31 = getelementptr inbounds nuw i8, ptr %0, i64 8
  %32 = load ptr, ptr %31, align 8
  %33 = getelementptr inbounds nuw ptr, ptr %32, i64 %30
  %34 = load ptr, ptr %33, align 8
  %35 = icmp eq ptr %34, null
  br i1 %35, label %36, label %hash_initial_lookup.exit

36:                                               ; preds = %calc_bucket.exit.i
  tail call fastcc void @hash_corrupted(ptr noundef nonnull readonly %0) #20
  unreachable

hash_initial_lookup.exit:                         ; preds = %calc_bucket.exit.i
  %37 = zext i32 %.0.i.i to i64
  %38 = getelementptr inbounds nuw i8, ptr %0, i64 80
  %39 = load i64, ptr %38, align 8
  %40 = add i64 %39, 4294967295
  %41 = and i64 %40, %37
  %42 = getelementptr inbounds nuw ptr, ptr %34, i64 %41
  br label %43

43:                                               ; preds = %43, %hash_initial_lookup.exit
  %.0 = phi ptr [ %42, %hash_initial_lookup.exit ], [ %.040, %43 ]
  %.040 = load ptr, ptr %.0, align 8
  %.not = icmp eq ptr %.040, null
  %44 = icmp eq ptr %.040, %4
  %or.cond = select i1 %.not, i1 true, i1 %44
  br i1 %or.cond, label %45, label %43, !llvm.loop !27

45:                                               ; preds = %43
  br i1 %.not, label %46, label %51

46:                                               ; preds = %45
  %47 = tail call zeroext i1 @errstart_cold(i32 noundef 21, ptr noundef null) #19
  tail call void @llvm.assume(i1 %47)
  %48 = getelementptr inbounds nuw i8, ptr %0, i64 56
  %49 = load ptr, ptr %48, align 8
  %50 = tail call i32 (ptr, ...) @errmsg_internal(ptr noundef nonnull @.str.9, ptr noundef %49) #17
  tail call void @errfinish(ptr noundef nonnull @.str.2, i32 noundef 1188, ptr noundef nonnull @__func__.hash_update_hash_key) #17
  unreachable

51:                                               ; preds = %45
  %52 = getelementptr inbounds nuw i8, ptr %0, i64 16
  %53 = load ptr, ptr %52, align 8
  %54 = getelementptr inbounds nuw i8, ptr %0, i64 72
  %55 = load i64, ptr %54, align 8
  %56 = tail call i32 %53(ptr noundef %2, i64 noundef %55) #17
  %57 = load ptr, ptr %0, align 8
  %58 = getelementptr inbounds nuw i8, ptr %57, i64 788
  %59 = load i32, ptr %58, align 4
  %60 = and i32 %59, %56
  %61 = getelementptr inbounds nuw i8, ptr %57, i64 784
  %62 = load i32, ptr %61, align 8
  %63 = icmp ugt i32 %60, %62
  br i1 %63, label %64, label %calc_bucket.exit.i43

64:                                               ; preds = %51
  %65 = getelementptr inbounds nuw i8, ptr %57, i64 792
  %66 = load i32, ptr %65, align 8
  %67 = and i32 %66, %60
  br label %calc_bucket.exit.i43

calc_bucket.exit.i43:                             ; preds = %64, %51
  %.0.i.i44 = phi i32 [ %67, %64 ], [ %60, %51 ]
  %68 = load i32, ptr %27, align 8
  %69 = lshr i32 %.0.i.i44, %68
  %70 = zext i32 %69 to i64
  %71 = load ptr, ptr %31, align 8
  %72 = getelementptr inbounds nuw ptr, ptr %71, i64 %70
  %73 = load ptr, ptr %72, align 8
  %74 = icmp eq ptr %73, null
  br i1 %74, label %75, label %hash_initial_lookup.exit45

75:                                               ; preds = %calc_bucket.exit.i43
  tail call fastcc void @hash_corrupted(ptr noundef nonnull readonly %0) #20
  unreachable

hash_initial_lookup.exit45:                       ; preds = %calc_bucket.exit.i43
  %76 = zext i32 %.0.i.i44 to i64
  %77 = load i64, ptr %38, align 8
  %78 = add i64 %77, 4294967295
  %79 = and i64 %78, %76
  %80 = getelementptr inbounds nuw ptr, ptr %73, i64 %79
  %81 = getelementptr inbounds nuw i8, ptr %0, i64 24
  %82 = load ptr, ptr %81, align 8
  %83 = load i64, ptr %54, align 8
  %.153 = load ptr, ptr %80, align 8
  %.not4154 = icmp eq ptr %.153, null
  br i1 %.not4154, label %.critedge, label %.lr.ph

.lr.ph:                                           ; preds = %hash_initial_lookup.exit45, %91
  %.155 = phi ptr [ %.1, %91 ], [ %.153, %hash_initial_lookup.exit45 ]
  %84 = getelementptr inbounds nuw i8, ptr %.155, i64 8
  %85 = load i32, ptr %84, align 8
  %86 = icmp eq i32 %85, %56
  br i1 %86, label %87, label %91

87:                                               ; preds = %.lr.ph
  %88 = getelementptr inbounds nuw i8, ptr %.155, i64 16
  %89 = tail call i32 %82(ptr noundef nonnull %88, ptr noundef %2, i64 noundef %83) #17
  %90 = icmp eq i32 %89, 0
  br i1 %90, label %.loopexit, label %91

91:                                               ; preds = %87, %.lr.ph
  %.1 = load ptr, ptr %.155, align 8
  %.not41 = icmp eq ptr %.1, null
  br i1 %.not41, label %.critedge, label %.lr.ph, !llvm.loop !28

.critedge:                                        ; preds = %91, %hash_initial_lookup.exit45
  %.149.lcssa = phi ptr [ %80, %hash_initial_lookup.exit45 ], [ %.155, %91 ]
  %.not42 = icmp eq i32 %.0.i.i, %.0.i.i44
  br i1 %.not42, label %94, label %92

92:                                               ; preds = %.critedge
  %93 = load ptr, ptr %4, align 8
  store ptr %93, ptr %.0, align 8
  store ptr %4, ptr %.149.lcssa, align 8
  store ptr null, ptr %4, align 8
  br label %94

94:                                               ; preds = %92, %.critedge
  store i32 %56, ptr %14, align 8
  %95 = getelementptr inbounds nuw i8, ptr %0, i64 32
  %96 = load ptr, ptr %95, align 8
  %97 = tail call ptr %96(ptr noundef %1, ptr noundef %2, i64 noundef %83) #17
  br label %.loopexit

.loopexit:                                        ; preds = %87, %94
  %.not4151 = phi i1 [ true, %94 ], [ false, %87 ]
  ret i1 %.not4151
}